target datalayout = "e-m:e-p270:32:32-p271:32:32-p272:64:64-i64:64-i128:128-f80:128-n8:16:32:64-S128"
target triple = "x86_64-pc-linux-gnu"

%"class.tbb::detail::d1::small_object_allocator" = type { ptr }
%"class.tbb::detail::d1::task" = type { ptr, %"class.tbb::detail::d1::task_traits", [6 x i64] }
%"class.tbb::detail::d1::task_traits" = type { i64 }
%"class.tbb::detail::d2::task_handle_task" = type { %"class.tbb::detail::d1::task", i64, ptr, ptr, %"class.tbb::detail::d1::small_object_allocator", [32 x i8] }

; Function Attrs: mustprogress nounwind
define linkonce_odr dso_local void @_ZN3tbb6detail2d14taskD2Ev(ptr noundef nonnull align 64 dereferenceable(64) %0) unnamed_addr #4 comdat align 2 {
  %2 = alloca ptr, align 8
  store ptr %0, ptr %2, align 8, !tbaa !2618
  ret void
}

; Function Attrs: mustprogress nounwind
define linkonce_odr dso_local void @_ZN3tbb6detail2d216task_handle_taskD2Ev(ptr noundef nonnull align 64 dereferenceable(96) %0) unnamed_addr #4 comdat align 2 {
  %2 = alloca ptr, align 8
  store ptr %0, ptr %2, align 8, !tbaa !2630
  %3 = load ptr, ptr %2, align 8
  store ptr getelementptr inbounds inrange(-16, 32) ({ [6 x ptr] }, ptr @_ZTVN3tbb6detail2d216task_handle_taskE, i32 0, i32 0, i32 2), ptr %3, align 64, !tbaa !394
  %4 = getelementptr inbounds nuw %"class.tbb::detail::d2::task_handle_task", ptr %3, i32 0, i32 2
  %5 = load ptr, ptr %4, align 8, !tbaa !2636
  %6 = load ptr, ptr %5, align 8, !tbaa !394
  %7 = getelementptr inbounds ptr, ptr %6, i64 1
  %8 = load ptr, ptr %7, align 8
  call void %8(ptr noundef nonnull align 8 dereferenceable(8) %5, i32 noundef 1)
  call void @_ZN3tbb6detail2d14taskD2Ev(ptr noundef nonnull align 64 dereferenceable(64) %3) #3
  ret void
}

; Function Attrs: inlinehint mustprogress nounwind
define internal void @_ZN3tbb6detail2d213function_taskIZN4moldL15new_object_fileINS3_6X86_64EEEPNS3_10ObjectFileIT_EERNS3_7ContextIS7_EERNS3_13ReaderContextEPNS3_10MappedFileENSt7__cxx1112basic_stringIcSt11char_traitsIcESaIcEEEEUlvE_ED0Ev(ptr noundef nonnull align 64 dereferenceable(112) %0) unnamed_addr #7 align 2 {
  %2 = alloca ptr, align 8
  store ptr %0, ptr %2, align 8, !tbaa !2627
  %3 = load ptr, ptr %2, align 8
  call void @_ZN3tbb6detail2d216task_handle_taskD2Ev(ptr noundef nonnull align 64 dereferenceable(112) %3) #3
  call void @_ZdlPvmSt11align_val_t(ptr noundef %3, i64 noundef 128, i64 noundef 64) #24
  ret void
}