; Function Attrs: inlinehint mustprogress nounwind
define internal void @_ZN3tbb6detail2d213function_taskIZN4moldL15new_object_fileINS3_6X86_64EEEPNS3_10ObjectFileIT_EERNS3_7ContextIS7_EERNS3_13ReaderContextEPNS3_10MappedFileENSt7__cxx1112basic_stringIcSt11char_traitsIcESaIcEEEEUlvE_ED0Ev(ptr noundef nonnull align 64 dereferenceable(112) initializes((0, 8)) %0) unnamed_addr #10 align 2 {
  store ptr getelementptr inbounds nuw inrange(-16, 32) (i8, ptr @_ZTVN3tbb6detail2d216task_handle_taskE, i64 16), ptr %0, align 64, !tbaa !305
  %2 = getelementptr inbounds nuw i8, ptr %0, i64 72
  %3 = load ptr, ptr %2, align 8, !tbaa !787
  %4 = load ptr, ptr %3, align 8, !tbaa !305
  %5 = getelementptr inbounds nuw i8, ptr %4, i64 8
  %6 = load ptr, ptr %5, align 8
  tail call void %6(ptr noundef nonnull align 8 dereferenceable(8) %3, i32 noundef 1) #16
  tail call void @_ZdlPvmSt11align_val_t(ptr noundef nonnull %0, i64 noundef 128, i64 noundef 64) #26
  ret void
}